; Function Attrs: mustprogress nounwind uwtable
define internal fastcc void @"_ZN2rc3gen6detail6MapGenISt5tupleIJhEEZNS0_5applyIZNS_13storePathCharEvE3$_0JhEEENS_3GenINSt13invoke_resultIT_JDpT0_EE4typeEEEOS9_DpNS7_ISA_EEEUlOS4_E_ED2Ev"(ptr noundef nonnull align 8 dereferenceable(48) %0) unnamed_addr #5 align 2 personality ptr @__gxx_personality_v0 {
  %2 = getelementptr inbounds i8, ptr %0, i64 8
  %3 = load ptr, ptr %2, align 8
  %.not.i = icmp eq ptr %3, null
  br i1 %.not.i, label %8, label %4

4:                                                ; preds = %1
  %5 = load ptr, ptr %3, align 8
  %6 = getelementptr inbounds i8, ptr %5, i64 16
  %7 = load ptr, ptr %6, align 8
  invoke void %7(ptr noundef nonnull align 8 dereferenceable(8) %3)
          to label %8 unwind label %16

8:                                                ; preds = %4, %1
  %9 = getelementptr inbounds i8, ptr %0, i64 16
  %10 = load ptr, ptr %9, align 8
  %11 = getelementptr inbounds i8, ptr %0, i64 32
  %12 = icmp eq ptr %10, %11
  br i1 %12, label %_ZNKSt7__cxx1112basic_stringIcSt11char_traitsIcESaIcEE11_M_is_localEv.exit.thread.i.i.i, label %_ZNKSt7__cxx1112basic_stringIcSt11char_traitsIcESaIcEE11_M_is_localEv.exit.i.i.i

_ZNKSt7__cxx1112basic_stringIcSt11char_traitsIcESaIcEE11_M_is_localEv.exit.thread.i.i.i: ; preds = %8
  %13 = getelementptr inbounds i8, ptr %0, i64 24
  %14 = load i64, ptr %13, align 8
  %15 = icmp ult i64 %14, 16
  tail call void @llvm.assume(i1 %15)
  br label %_ZN2rc3GenISt5tupleIJhEEED2Ev.exit

_ZNKSt7__cxx1112basic_stringIcSt11char_traitsIcESaIcEE11_M_is_localEv.exit.i.i.i: ; preds = %8
  tail call void @_ZdlPv(ptr noundef %10) #23
  br label %_ZN2rc3GenISt5tupleIJhEEED2Ev.exit

16:                                               ; preds = %4
  %17 = landingpad { ptr, i32 }
          catch ptr null
  %18 = extractvalue { ptr, i32 } %17, 0
  tail call void @__clang_call_terminate(ptr %18) #24
  unreachable

_ZN2rc3GenISt5tupleIJhEEED2Ev.exit:               ; preds = %_ZNKSt7__cxx1112basic_stringIcSt11char_traitsIcESaIcEE11_M_is_localEv.exit.thread.i.i.i, %_ZNKSt7__cxx1112basic_stringIcSt11char_traitsIcESaIcEE11_M_is_localEv.exit.i.i.i
  tail call void @_ZNSaIcED2Ev(ptr noundef nonnull align 1 dereferenceable(1) %9) #21
  ret void
}